; Function Attrs: mustprogress uwtable
define hidden void @_ZN5ceres8internal25CompressedRowSparseMatrix12ScaleColumnsEPKd(ptr noundef nonnull readonly align 8 captures(none) dereferenceable(144) %0, ptr noundef readonly captures(address_is_null) %1) unnamed_addr #0 align 2 personality ptr @__gxx_personality_v0 {
  %3 = alloca %"class.absl::lts_20240116::log_internal::LogMessageFatal", align 8
  %.not = icmp eq ptr %1, null
  br i1 %.not, label %16, label %.critedge.preheader, !prof !80

.critedge.preheader:                              ; preds = %2
  %4 = getelementptr inbounds nuw i8, ptr %0, i64 16
  %5 = getelementptr inbounds nuw i8, ptr %0, i64 8
  %6 = load i32, ptr %5, align 8, !tbaa !6
  %7 = sext i32 %6 to i64
  %8 = load ptr, ptr %4, align 8, !tbaa !33
  %9 = getelementptr inbounds nuw i32, ptr %8, i64 %7
  %10 = load i32, ptr %9, align 4, !tbaa !31
  %11 = icmp sgt i32 %10, 0
  br i1 %11, label %.lr.ph, label %.critedge._crit_edge

.lr.ph:                                           ; preds = %.critedge.preheader
  %12 = getelementptr inbounds nuw i8, ptr %0, i64 40
  %13 = load ptr, ptr %12, align 8, !tbaa !33
  %14 = getelementptr inbounds nuw i8, ptr %0, i64 64
  %15 = load ptr, ptr %14, align 8, !tbaa !37
  %wide.trip.count = zext nneg i32 %10 to i64
  br label %.critedge

16:                                               ; preds = %2
  call void @llvm.lifetime.start.p0(i64 16, ptr nonnull %3) #30
  call void @_ZN4absl12lts_2024011612log_internal15LogMessageFatalC1EPKciSt17basic_string_viewIcSt11char_traitsIcEE(ptr noundef nonnull align 8 dereferenceable(16) %3, ptr noundef nonnull @.str, i32 noundef 437, i64 16, ptr nonnull @.str.14) #31
  call void @_ZN4absl12lts_2024011612log_internal15LogMessageFatalD1Ev(ptr noundef nonnull align 8 dereferenceable(16) %3) #36
  unreachable

.critedge._crit_edge:                             ; preds = %.critedge, %.critedge.preheader
  ret void

.critedge:                                        ; preds = %.lr.ph, %.critedge
  %indvars.iv = phi i64 [ 0, %.lr.ph ], [ %indvars.iv.next, %.critedge ]
  %17 = getelementptr inbounds nuw i32, ptr %13, i64 %indvars.iv
  %18 = load i32, ptr %17, align 4, !tbaa !31
  %19 = sext i32 %18 to i64
  %20 = getelementptr inbounds double, ptr %1, i64 %19
  %21 = load double, ptr %20, align 8, !tbaa !34
  %22 = getelementptr inbounds nuw double, ptr %15, i64 %indvars.iv
  %23 = load double, ptr %22, align 8, !tbaa !34
  %24 = fmul double %21, %23
  store double %24, ptr %22, align 8, !tbaa !34
  %indvars.iv.next = add nuw nsw i64 %indvars.iv, 1
  %exitcond.not = icmp eq i64 %indvars.iv.next, %wide.trip.count
  br i1 %exitcond.not, label %.critedge._crit_edge, label %.critedge, !llvm.loop !142
}